target datalayout = "e-m:e-p270:32:32-p271:32:32-p272:64:64-i64:64-i128:128-f80:128-n8:16:32:64-S128"
target triple = "x86_64-pc-linux-gnu"

%struct.veci_t = type { i32, i32, ptr }

@stdout = external global ptr, align 8
@.str.9 = private unnamed_addr constant [51 x i8] c"Failed to realloc memory from %.1f MB to %.1f MB.\0A\00", align 1

; Function Attrs: nounwind uwtable
define internal void @veci_push(ptr noundef %0, i32 noundef %1) #0 {
  %3 = alloca ptr, align 8
  %4 = alloca i32, align 4
  %5 = alloca i32, align 4
  store ptr %0, ptr %3, align 8
  store i32 %1, ptr %4, align 4
  %6 = load ptr, ptr %3, align 8
  %7 = getelementptr inbounds %struct.veci_t, ptr %6, i32 0, i32 1
  %8 = load i32, ptr %7, align 4
  %9 = load ptr, ptr %3, align 8
  %10 = getelementptr inbounds %struct.veci_t, ptr %9, i32 0, i32 0
  %11 = load i32, ptr %10, align 8
  %12 = icmp eq i32 %8, %11
  br i1 %12, label %13, label %74

13:                                               ; preds = %2
  %14 = load ptr, ptr %3, align 8
  %15 = getelementptr inbounds %struct.veci_t, ptr %14, i32 0, i32 0
  %16 = load i32, ptr %15, align 8
  %17 = icmp slt i32 %16, 4
  br i1 %17, label %18, label %23

18:                                               ; preds = %13
  %19 = load ptr, ptr %3, align 8
  %20 = getelementptr inbounds %struct.veci_t, ptr %19, i32 0, i32 0
  %21 = load i32, ptr %20, align 8
  %22 = mul nsw i32 %21, 2
  br label %29

23:                                               ; preds = %13
  %24 = load ptr, ptr %3, align 8
  %25 = getelementptr inbounds %struct.veci_t, ptr %24, i32 0, i32 0
  %26 = load i32, ptr %25, align 8
  %27 = sdiv i32 %26, 2
  %28 = mul nsw i32 %27, 3
  br label %29

29:                                               ; preds = %23, %18
  %30 = phi i32 [ %22, %18 ], [ %28, %23 ]
  store i32 %30, ptr %5, align 4
  %31 = load ptr, ptr %3, align 8
  %32 = getelementptr inbounds %struct.veci_t, ptr %31, i32 0, i32 2
  %33 = load ptr, ptr %32, align 8
  %34 = icmp ne ptr %33, null
  br i1 %34, label %35, label %43

35:                                               ; preds = %29
  %36 = load ptr, ptr %3, align 8
  %37 = getelementptr inbounds %struct.veci_t, ptr %36, i32 0, i32 2
  %38 = load ptr, ptr %37, align 8
  %39 = load i32, ptr %5, align 4
  %40 = sext i32 %39 to i64
  %41 = mul i64 4, %40
  %42 = call ptr @realloc(ptr noundef %38, i64 noundef %41) #11
  br label %48

43:                                               ; preds = %29
  %44 = load i32, ptr %5, align 4
  %45 = sext i32 %44 to i64
  %46 = mul i64 4, %45
  %47 = call noalias ptr @malloc(i64 noundef %46) #12
  br label %48

48:                                               ; preds = %43, %35
  %49 = phi ptr [ %42, %35 ], [ %47, %43 ]
  %50 = load ptr, ptr %3, align 8
  %51 = getelementptr inbounds %struct.veci_t, ptr %50, i32 0, i32 2
  store ptr %49, ptr %51, align 8
  %52 = load ptr, ptr %3, align 8
  %53 = getelementptr inbounds %struct.veci_t, ptr %52, i32 0, i32 2
  %54 = load ptr, ptr %53, align 8
  %55 = icmp eq ptr %54, null
  br i1 %55, label %56, label %70

56:                                               ; preds = %48
  %57 = load ptr, ptr %3, align 8
  %58 = getelementptr inbounds %struct.veci_t, ptr %57, i32 0, i32 0
  %59 = load i32, ptr %58, align 8
  %60 = sitofp i32 %59 to double
  %61 = fmul double 1.000000e+00, %60
  %62 = fdiv double %61, 0x4130000000000000
  %63 = load i32, ptr %5, align 4
  %64 = sitofp i32 %63 to double
  %65 = fmul double 1.000000e+00, %64
  %66 = fdiv double %65, 0x4130000000000000
  %67 = call i32 (ptr, ...) @printf(ptr noundef @.str.9, double noundef %62, double noundef %66)
  %68 = load ptr, ptr @stdout, align 8
  %69 = call i32 @fflush(ptr noundef %68)
  br label %70

70:                                               ; preds = %56, %48
  %71 = load i32, ptr %5, align 4
  %72 = load ptr, ptr %3, align 8
  %73 = getelementptr inbounds %struct.veci_t, ptr %72, i32 0, i32 0
  store i32 %71, ptr %73, align 8
  br label %74

74:                                               ; preds = %70, %2
  %75 = load i32, ptr %4, align 4
  %76 = load ptr, ptr %3, align 8
  %77 = getelementptr inbounds %struct.veci_t, ptr %76, i32 0, i32 2
  %78 = load ptr, ptr %77, align 8
  %79 = load ptr, ptr %3, align 8
  %80 = getelementptr inbounds %struct.veci_t, ptr %79, i32 0, i32 1
  %81 = load i32, ptr %80, align 4
  %82 = add nsw i32 %81, 1
  store i32 %82, ptr %80, align 4
  %83 = sext i32 %81 to i64
  %84 = getelementptr inbounds i32, ptr %78, i64 %83
  store i32 %75, ptr %84, align 4
  ret void
}