; Function Attrs: nounwind uwtable
define internal fastcc void @veci_push(ptr noundef captures(none) %0, i32 noundef %1) unnamed_addr #2 {
  %3 = getelementptr inbounds nuw i8, ptr %0, i64 4
  %4 = load i32, ptr %3, align 4
  %5 = load i32, ptr %0, align 8
  %6 = icmp eq i32 %4, %5
  br i1 %6, label %7, label %34

7:                                                ; preds = %2
  %8 = icmp slt i32 %4, 4
  %9 = shl nsw i32 %4, 1
  %10 = lshr i32 %4, 1
  %11 = mul nuw nsw i32 %10, 3
  %12 = select i1 %8, i32 %9, i32 %11
  %13 = getelementptr inbounds nuw i8, ptr %0, i64 8
  %14 = load ptr, ptr %13, align 8
  %.not = icmp eq ptr %14, null
  %15 = sext i32 %12 to i64
  %16 = shl nsw i64 %15, 2
  br i1 %.not, label %19, label %17

17:                                               ; preds = %7
  %18 = tail call ptr @realloc(ptr noundef nonnull %14, i64 noundef %16) #27
  br label %21

19:                                               ; preds = %7
  %20 = tail call noalias ptr @malloc(i64 noundef %16) #28
  br label %21

21:                                               ; preds = %19, %17
  %22 = phi ptr [ %18, %17 ], [ %20, %19 ]
  store ptr %22, ptr %13, align 8
  %23 = icmp eq ptr %22, null
  br i1 %23, label %24, label %33

24:                                               ; preds = %21
  %25 = load i32, ptr %0, align 8
  %26 = sitofp i32 %25 to double
  %27 = fmul double %26, 0x3EB0000000000000
  %28 = sitofp i32 %12 to double
  %29 = fmul double %28, 0x3EB0000000000000
  %30 = tail call i32 (ptr, ...) @printf(ptr noundef nonnull dereferenceable(1) @.str.9, double noundef %27, double noundef %29)
  %31 = load ptr, ptr @stdout, align 8
  %32 = tail call i32 @fflush(ptr noundef %31)
  br label %33

33:                                               ; preds = %24, %21
  store i32 %12, ptr %0, align 8
  %.pre = load i32, ptr %3, align 4
  br label %34

34:                                               ; preds = %33, %2
  %35 = phi i32 [ %.pre, %33 ], [ %4, %2 ]
  %36 = getelementptr inbounds nuw i8, ptr %0, i64 8
  %37 = load ptr, ptr %36, align 8
  %38 = add nsw i32 %35, 1
  store i32 %38, ptr %3, align 4
  %39 = sext i32 %35 to i64
  %40 = getelementptr inbounds i32, ptr %37, i64 %39
  store i32 %1, ptr %40, align 4
  ret void
}